target datalayout = "e-m:e-p270:32:32-p271:32:32-p272:64:64-i64:64-i128:128-f80:128-n8:16:32:64-S128"
target triple = "x86_64-unknown-linux-gnu"

%"class.QuantLib::Date" = type { i64 }
%"class.boost::detail::shared_count" = type { ptr }
%"class.boost::optional" = type { %"class.boost::optional_detail::tc_optional_base" }
%"class.boost::optional_detail::tc_optional_base" = type { i8, i8 }
%"class.QuantLib::Null" = type { i8 }
%"class.QuantLib::MakeSwaption" = type { %"class.boost::shared_ptr.27", i32, i32, %"class.boost::shared_ptr.28", %"class.QuantLib::Period", i32, %"class.QuantLib::Date", %"class.QuantLib::Date", %"class.boost::shared_ptr.26", double, i32, double, %"class.boost::optional", %"class.boost::shared_ptr.24" }
%"class.boost::shared_ptr.27" = type { ptr, %"class.boost::detail::shared_count" }
%"class.boost::shared_ptr.28" = type { ptr, %"class.boost::detail::shared_count" }
%"class.QuantLib::Period" = type { i32, i32 }
%"class.boost::shared_ptr.26" = type { ptr, %"class.boost::detail::shared_count" }
%"class.boost::shared_ptr.24" = type { ptr, %"class.boost::detail::shared_count" }

; Function Attrs: noinline noreturn nounwind uwtable
define linkonce_odr hidden void @__clang_call_terminate(ptr noundef %0) #3 comdat {
  %2 = call ptr @__cxa_begin_catch(ptr %0) #13
  call void @_ZSt9terminatev() #19
  unreachable
}

; Function Attrs: mustprogress nounwind uwtable
define linkonce_odr void @_ZN5boost15optional_detail16tc_optional_baseIbEC2Ev(ptr noundef nonnull align 1 dereferenceable(2) %this) unnamed_addr #1 comdat align 2 {
entry:
  %this.addr = alloca ptr, align 8
  store ptr %this, ptr %this.addr, align 8, !tbaa !3
  %this1 = load ptr, ptr %this.addr, align 8
  %m_initialized = getelementptr inbounds nuw %"class.boost::optional_detail::tc_optional_base", ptr %this1, i32 0, i32 0
  store i8 0, ptr %m_initialized, align 1, !tbaa !189
  ret void
}

; Function Attrs: mustprogress nounwind uwtable
define linkonce_odr void @_ZN5boost6detail12shared_countC2Ev(ptr noundef nonnull align 8 dereferenceable(8) %this) unnamed_addr #1 comdat align 2 {
entry:
  %this.addr = alloca ptr, align 8
  store ptr %this, ptr %this.addr, align 8, !tbaa !3
  %this1 = load ptr, ptr %this.addr, align 8
  %pi_ = getelementptr inbounds nuw %"class.boost::detail::shared_count", ptr %this1, i32 0, i32 0
  store ptr null, ptr %pi_, align 8, !tbaa !121
  ret void
}

; Function Attrs: mustprogress nounwind uwtable
define linkonce_odr void @_ZN5boost6detail12shared_countC2EOS1_(ptr noundef nonnull align 8 dereferenceable(8) %this, ptr noundef nonnull align 8 dereferenceable(8) %r) unnamed_addr #1 comdat align 2 {
entry:
  %this.addr = alloca ptr, align 8
  %r.addr = alloca ptr, align 8
  store ptr %this, ptr %this.addr, align 8, !tbaa !3
  store ptr %r, ptr %r.addr, align 8, !tbaa !3
  %this1 = load ptr, ptr %this.addr, align 8
  %pi_ = getelementptr inbounds nuw %"class.boost::detail::shared_count", ptr %this1, i32 0, i32 0
  %0 = load ptr, ptr %r.addr, align 8, !tbaa !3
  %pi_2 = getelementptr inbounds nuw %"class.boost::detail::shared_count", ptr %0, i32 0, i32 0
  %1 = load ptr, ptr %pi_2, align 8, !tbaa !121
  store ptr %1, ptr %pi_, align 8, !tbaa !121
  %2 = load ptr, ptr %r.addr, align 8, !tbaa !3
  %pi_3 = getelementptr inbounds nuw %"class.boost::detail::shared_count", ptr %2, i32 0, i32 0
  store ptr null, ptr %pi_3, align 8, !tbaa !121
  ret void
}

; Function Attrs: mustprogress nounwind uwtable
define linkonce_odr void @_ZN5boost10shared_ptrIN8QuantLib13PricingEngineEEC2Ev(ptr noundef nonnull align 8 dereferenceable(16) %this) unnamed_addr #1 comdat align 2 {
entry:
  %this.addr = alloca ptr, align 8
  store ptr %this, ptr %this.addr, align 8, !tbaa !3
  %this1 = load ptr, ptr %this.addr, align 8
  %px = getelementptr inbounds nuw %"class.boost::shared_ptr.24", ptr %this1, i32 0, i32 0
  store ptr null, ptr %px, align 8, !tbaa !45
  %pn = getelementptr inbounds nuw %"class.boost::shared_ptr.24", ptr %this1, i32 0, i32 1
  call void @_ZN5boost6detail12shared_countC2Ev(ptr noundef nonnull align 8 dereferenceable(8) %pn) #13
  ret void
}

; Function Attrs: mustprogress nounwind uwtable
define linkonce_odr void @_ZN5boost8optionalIbEC2Ev(ptr noundef nonnull align 1 dereferenceable(2) %this) unnamed_addr #1 comdat align 2 personality ptr @__gxx_personality_v0 {
entry:
  %this.addr = alloca ptr, align 8
  store ptr %this, ptr %this.addr, align 8, !tbaa !3
  %this1 = load ptr, ptr %this.addr, align 8
  invoke void @_ZN5boost15optional_detail16tc_optional_baseIbEC2Ev(ptr noundef nonnull align 1 dereferenceable(2) %this1)
          to label %invoke.cont unwind label %terminate.lpad

invoke.cont:                                      ; preds = %entry
  ret void

terminate.lpad:                                   ; preds = %entry
  %0 = landingpad { ptr, i32 }
          catch ptr null
  %1 = extractvalue { ptr, i32 } %0, 0
  call void @__clang_call_terminate(ptr %1) #19
  unreachable
}

; Function Attrs: mustprogress nounwind uwtable
define linkonce_odr void @_ZN5boost10shared_ptrIN8QuantLib8ExerciseEEC2Ev(ptr noundef nonnull align 8 dereferenceable(16) %this) unnamed_addr #1 comdat align 2 {
entry:
  %this.addr = alloca ptr, align 8
  store ptr %this, ptr %this.addr, align 8, !tbaa !3
  %this1 = load ptr, ptr %this.addr, align 8
  %px = getelementptr inbounds nuw %"class.boost::shared_ptr.26", ptr %this1, i32 0, i32 0
  store ptr null, ptr %px, align 8, !tbaa !44
  %pn = getelementptr inbounds nuw %"class.boost::shared_ptr.26", ptr %this1, i32 0, i32 1
  call void @_ZN5boost6detail12shared_countC2Ev(ptr noundef nonnull align 8 dereferenceable(8) %pn) #13
  ret void
}

; Function Attrs: mustprogress uwtable
define linkonce_odr i64 @_ZNK8QuantLib4NullINS_4DateEEcvS1_Ev(ptr noundef nonnull align 1 dereferenceable(1) %this) #2 comdat align 2 {
entry:
  %retval = alloca %"class.QuantLib::Date", align 8
  %this.addr = alloca ptr, align 8
  store ptr %this, ptr %this.addr, align 8, !tbaa !3
  call void @_ZN8QuantLib4DateC1Ev(ptr noundef nonnull align 8 dereferenceable(8) %retval)
  %coerce.dive = getelementptr inbounds nuw %"class.QuantLib::Date", ptr %retval, i32 0, i32 0
  %0 = load i64, ptr %coerce.dive, align 8
  ret i64 %0
}

; Function Attrs: mustprogress nounwind uwtable
define linkonce_odr void @_ZN5boost10shared_ptrIN8QuantLib19FixedVsFloatingSwapEEC2Ev(ptr noundef nonnull align 8 dereferenceable(16) %this) unnamed_addr #1 comdat align 2 {
entry:
  %this.addr = alloca ptr, align 8
  store ptr %this, ptr %this.addr, align 8, !tbaa !3
  %this1 = load ptr, ptr %this.addr, align 8
  %px = getelementptr inbounds nuw %"class.boost::shared_ptr.28", ptr %this1, i32 0, i32 0
  store ptr null, ptr %px, align 8, !tbaa !43
  %pn = getelementptr inbounds nuw %"class.boost::shared_ptr.28", ptr %this1, i32 0, i32 1
  call void @_ZN5boost6detail12shared_countC2Ev(ptr noundef nonnull align 8 dereferenceable(8) %pn) #13
  ret void
}

; Function Attrs: mustprogress nounwind uwtable
define linkonce_odr void @_ZN5boost10shared_ptrIN8QuantLib9SwapIndexEEC2EOS3_(ptr noundef nonnull align 8 dereferenceable(16) %this, ptr noundef nonnull align 8 dereferenceable(16) %r) unnamed_addr #1 comdat align 2 {
entry:
  %this.addr = alloca ptr, align 8
  %r.addr = alloca ptr, align 8
  store ptr %this, ptr %this.addr, align 8, !tbaa !3
  store ptr %r, ptr %r.addr, align 8, !tbaa !3
  %this1 = load ptr, ptr %this.addr, align 8
  %px = getelementptr inbounds nuw %"class.boost::shared_ptr.27", ptr %this1, i32 0, i32 0
  %0 = load ptr, ptr %r.addr, align 8, !tbaa !3
  %px2 = getelementptr inbounds nuw %"class.boost::shared_ptr.27", ptr %0, i32 0, i32 0
  %1 = load ptr, ptr %px2, align 8, !tbaa !42
  store ptr %1, ptr %px, align 8, !tbaa !42
  %pn = getelementptr inbounds nuw %"class.boost::shared_ptr.27", ptr %this1, i32 0, i32 1
  %2 = load ptr, ptr %r.addr, align 8, !tbaa !3
  %pn3 = getelementptr inbounds nuw %"class.boost::shared_ptr.27", ptr %2, i32 0, i32 1
  call void @_ZN5boost6detail12shared_countC2EOS1_(ptr noundef nonnull align 8 dereferenceable(8) %pn, ptr noundef nonnull align 8 dereferenceable(8) %pn3) #13
  %3 = load ptr, ptr %r.addr, align 8, !tbaa !3
  %px4 = getelementptr inbounds nuw %"class.boost::shared_ptr.27", ptr %3, i32 0, i32 0
  store ptr null, ptr %px4, align 8, !tbaa !42
  ret void
}

; Function Attrs: mustprogress uwtable
define void @_ZN8QuantLib12MakeSwaptionC2EN5boost10shared_ptrINS_9SwapIndexEEERKNS_6PeriodEd(ptr noundef nonnull align 8 dereferenceable(136) %this, ptr noundef %swapIndex, ptr noundef nonnull align 4 dereferenceable(8) %optionTenor, double noundef %strike) unnamed_addr #2 align 2 personality ptr @__gxx_personality_v0 {
entry:
  %this.addr = alloca ptr, align 8
  %swapIndex.indirect_addr = alloca ptr, align 8
  %optionTenor.addr = alloca ptr, align 8
  %strike.addr = alloca double, align 8
  %ref.tmp = alloca %"class.QuantLib::Null", align 1
  %exn.slot = alloca ptr, align 8
  %ehselector.slot = alloca i32, align 4
  store ptr %this, ptr %this.addr, align 8, !tbaa !3
  store ptr %swapIndex, ptr %swapIndex.indirect_addr, align 8, !tbaa !3
  store ptr %optionTenor, ptr %optionTenor.addr, align 8, !tbaa !3
  store double %strike, ptr %strike.addr, align 8, !tbaa !14
  %this1 = load ptr, ptr %this.addr, align 8
  %swapIndex_ = getelementptr inbounds nuw %"class.QuantLib::MakeSwaption", ptr %this1, i32 0, i32 0
  call void @_ZN5boost10shared_ptrIN8QuantLib9SwapIndexEEC2EOS3_(ptr noundef nonnull align 8 dereferenceable(16) %swapIndex_, ptr noundef nonnull align 8 dereferenceable(16) %swapIndex) #13
  %delivery_ = getelementptr inbounds nuw %"class.QuantLib::MakeSwaption", ptr %this1, i32 0, i32 1
  store i32 0, ptr %delivery_, align 8, !tbaa !16
  %settlementMethod_ = getelementptr inbounds nuw %"class.QuantLib::MakeSwaption", ptr %this1, i32 0, i32 2
  store i32 0, ptr %settlementMethod_, align 4, !tbaa !34
  %underlyingSwap_ = getelementptr inbounds nuw %"class.QuantLib::MakeSwaption", ptr %this1, i32 0, i32 3
  call void @_ZN5boost10shared_ptrIN8QuantLib19FixedVsFloatingSwapEEC2Ev(ptr noundef nonnull align 8 dereferenceable(16) %underlyingSwap_) #13
  %optionTenor_ = getelementptr inbounds nuw %"class.QuantLib::MakeSwaption", ptr %this1, i32 0, i32 4
  %0 = load ptr, ptr %optionTenor.addr, align 8, !tbaa !3
  call void @llvm.memcpy.p0.p0.i64(ptr align 8 %optionTenor_, ptr align 4 %0, i64 8, i1 false), !tbaa.struct !35
  %optionConvention_ = getelementptr inbounds nuw %"class.QuantLib::MakeSwaption", ptr %this1, i32 0, i32 5
  store i32 1, ptr %optionConvention_, align 8, !tbaa !38
  %fixingDate_ = getelementptr inbounds nuw %"class.QuantLib::MakeSwaption", ptr %this1, i32 0, i32 6
  call void @llvm.lifetime.start.p0(i64 1, ptr %ref.tmp) #13
  %call = invoke i64 @_ZNK8QuantLib4NullINS_4DateEEcvS1_Ev(ptr noundef nonnull align 1 dereferenceable(1) %ref.tmp)
          to label %invoke.cont unwind label %lpad

invoke.cont:                                      ; preds = %entry
  %coerce.dive = getelementptr inbounds nuw %"class.QuantLib::Date", ptr %fixingDate_, i32 0, i32 0
  store i64 %call, ptr %coerce.dive, align 8
  call void @llvm.lifetime.end.p0(i64 1, ptr %ref.tmp) #13
  %exerciseDate_ = getelementptr inbounds nuw %"class.QuantLib::MakeSwaption", ptr %this1, i32 0, i32 7
  invoke void @_ZN8QuantLib4DateC1Ev(ptr noundef nonnull align 8 dereferenceable(8) %exerciseDate_)
          to label %invoke.cont3 unwind label %lpad2

invoke.cont3:                                     ; preds = %invoke.cont
  %exercise_ = getelementptr inbounds nuw %"class.QuantLib::MakeSwaption", ptr %this1, i32 0, i32 8
  call void @_ZN5boost10shared_ptrIN8QuantLib8ExerciseEEC2Ev(ptr noundef nonnull align 8 dereferenceable(16) %exercise_) #13
  %strike_ = getelementptr inbounds nuw %"class.QuantLib::MakeSwaption", ptr %this1, i32 0, i32 9
  %1 = load double, ptr %strike.addr, align 8, !tbaa !14
  store double %1, ptr %strike_, align 8, !tbaa !39
  %underlyingType_ = getelementptr inbounds nuw %"class.QuantLib::MakeSwaption", ptr %this1, i32 0, i32 10
  store i32 1, ptr %underlyingType_, align 8, !tbaa !40
  %nominal_ = getelementptr inbounds nuw %"class.QuantLib::MakeSwaption", ptr %this1, i32 0, i32 11
  store double 1.000000e+00, ptr %nominal_, align 8, !tbaa !41
  %useIndexedCoupons_ = getelementptr inbounds nuw %"class.QuantLib::MakeSwaption", ptr %this1, i32 0, i32 12
  call void @_ZN5boost8optionalIbEC2Ev(ptr noundef nonnull align 1 dereferenceable(2) %useIndexedCoupons_) #13
  %engine_ = getelementptr inbounds nuw %"class.QuantLib::MakeSwaption", ptr %this1, i32 0, i32 13
  call void @_ZN5boost10shared_ptrIN8QuantLib13PricingEngineEEC2Ev(ptr noundef nonnull align 8 dereferenceable(16) %engine_) #13
  ret void

lpad:                                             ; preds = %entry
  %2 = landingpad { ptr, i32 }
          cleanup
  %3 = extractvalue { ptr, i32 } %2, 0
  store ptr %3, ptr %exn.slot, align 8
  %4 = extractvalue { ptr, i32 } %2, 1
  store i32 %4, ptr %ehselector.slot, align 4
  call void @llvm.lifetime.end.p0(i64 1, ptr %ref.tmp) #13
  br label %ehcleanup

lpad2:                                            ; preds = %invoke.cont
  %5 = landingpad { ptr, i32 }
          cleanup
  %6 = extractvalue { ptr, i32 } %5, 0
  store ptr %6, ptr %exn.slot, align 8
  %7 = extractvalue { ptr, i32 } %5, 1
  store i32 %7, ptr %ehselector.slot, align 4
  br label %ehcleanup

ehcleanup:                                        ; preds = %lpad2, %lpad
  call void @_ZN5boost10shared_ptrIN8QuantLib19FixedVsFloatingSwapEED2Ev(ptr noundef nonnull align 8 dereferenceable(16) %underlyingSwap_) #13
  call void @_ZN5boost10shared_ptrIN8QuantLib9SwapIndexEED2Ev(ptr noundef nonnull align 8 dereferenceable(16) %swapIndex_) #13
  br label %eh.resume

eh.resume:                                        ; preds = %ehcleanup
  %exn = load ptr, ptr %exn.slot, align 8
  %sel = load i32, ptr %ehselector.slot, align 4
  %lpad.val = insertvalue { ptr, i32 } poison, ptr %exn, 0
  %lpad.val5 = insertvalue { ptr, i32 } %lpad.val, i32 %sel, 1
  resume { ptr, i32 } %lpad.val5
}