; Function Attrs: mustprogress uwtable
define void @_ZN8QuantLib12MakeSwaptionC2EN5boost10shared_ptrINS_9SwapIndexEEERKNS_6PeriodEd(ptr noundef nonnull align 8 dereferenceable(136) %this, ptr nocapture noundef %swapIndex, ptr nocapture noundef nonnull readonly align 4 dereferenceable(8) %optionTenor, double noundef %strike) unnamed_addr #7 align 2 personality ptr @__gxx_personality_v0 {
entry:
  %retval.i = alloca %"class.QuantLib::Date", align 8
  %0 = load ptr, ptr %swapIndex, align 8, !tbaa !39
  store ptr %0, ptr %this, align 8, !tbaa !39
  %pn.i = getelementptr inbounds nuw i8, ptr %this, i64 8
  %pn3.i = getelementptr inbounds nuw i8, ptr %swapIndex, i64 8
  %1 = load ptr, ptr %pn3.i, align 8, !tbaa !37
  store ptr %1, ptr %pn.i, align 8, !tbaa !37
  tail call void @llvm.memset.p0.i64(ptr noundef nonnull align 8 dereferenceable(16) %swapIndex, i8 0, i64 16, i1 false)
  %delivery_ = getelementptr inbounds nuw i8, ptr %this, i64 16
  %optionTenor_ = getelementptr inbounds nuw i8, ptr %this, i64 40
  tail call void @llvm.memset.p0.i64(ptr noundef nonnull align 8 dereferenceable(24) %delivery_, i8 0, i64 24, i1 false)
  %2 = load i64, ptr %optionTenor, align 4
  store i64 %2, ptr %optionTenor_, align 8
  %optionConvention_ = getelementptr inbounds nuw i8, ptr %this, i64 48
  store i32 1, ptr %optionConvention_, align 8, !tbaa !41
  call void @llvm.lifetime.start.p0(i64 8, ptr nonnull %retval.i)
  invoke void @_ZN8QuantLib4DateC1Ev(ptr noundef nonnull align 8 dereferenceable(8) %retval.i)
          to label %invoke.cont unwind label %lpad

invoke.cont:                                      ; preds = %entry
  %3 = load i64, ptr %retval.i, align 8
  call void @llvm.lifetime.end.p0(i64 8, ptr nonnull %retval.i)
  %fixingDate_ = getelementptr inbounds nuw i8, ptr %this, i64 56
  store i64 %3, ptr %fixingDate_, align 8
  %exerciseDate_ = getelementptr inbounds nuw i8, ptr %this, i64 64
  invoke void @_ZN8QuantLib4DateC1Ev(ptr noundef nonnull align 8 dereferenceable(8) %exerciseDate_)
          to label %invoke.cont3 unwind label %lpad2

invoke.cont3:                                     ; preds = %invoke.cont
  %exercise_ = getelementptr inbounds nuw i8, ptr %this, i64 72
  call void @llvm.memset.p0.i64(ptr noundef nonnull align 8 dereferenceable(16) %exercise_, i8 0, i64 16, i1 false)
  %strike_ = getelementptr inbounds nuw i8, ptr %this, i64 88
  store double %strike, ptr %strike_, align 8, !tbaa !57
  %underlyingType_ = getelementptr inbounds nuw i8, ptr %this, i64 96
  store i32 1, ptr %underlyingType_, align 8, !tbaa !58
  %nominal_ = getelementptr inbounds nuw i8, ptr %this, i64 104
  store double 1.000000e+00, ptr %nominal_, align 8, !tbaa !59
  %useIndexedCoupons_ = getelementptr inbounds nuw i8, ptr %this, i64 112
  store i8 0, ptr %useIndexedCoupons_, align 8, !tbaa !60
  %engine_ = getelementptr inbounds nuw i8, ptr %this, i64 120
  call void @llvm.memset.p0.i64(ptr noundef nonnull align 8 dereferenceable(16) %engine_, i8 0, i64 16, i1 false)
  ret void

lpad:                                             ; preds = %entry
  %4 = landingpad { ptr, i32 }
          cleanup
  br label %ehcleanup

lpad2:                                            ; preds = %invoke.cont
  %5 = landingpad { ptr, i32 }
          cleanup
  br label %ehcleanup

ehcleanup:                                        ; preds = %lpad2, %lpad
  %.pn = phi { ptr, i32 } [ %5, %lpad2 ], [ %4, %lpad ]
  %underlyingSwap_ = getelementptr inbounds nuw i8, ptr %this, i64 24
  call void @_ZN5boost10shared_ptrIN8QuantLib19FixedVsFloatingSwapEED2Ev(ptr noundef nonnull align 8 dereferenceable(16) %underlyingSwap_) #24
  call void @_ZN5boost10shared_ptrIN8QuantLib9SwapIndexEED2Ev(ptr noundef nonnull align 8 dereferenceable(16) %this) #24
  resume { ptr, i32 } %.pn
}